(lp0
(dp1
I0
(dp2
S'0-42'
p3
(lp4
I749
aI42
aI781
aI102
asS'0-40'
p5
(lp6
I685
aI42
aI717
aI102
asS'0-29'
p7
(lp8
I303
aI42
aI335
aI102
asS'0-28'
p9
(lp10
I271
aI42
aI303
aI102
asS'0-23'
p11
(lp12
I909
aI-18
aI941
aI42
asS'0-22'
p13
(lp14
I877
aI-18
aI909
aI42
asS'0-21'
p15
(lp16
I845
aI-18
aI877
aI42
asS'0-20'
p17
(lp18
I813
aI-18
aI845
aI42
asS'0-27'
p19
(lp20
I239
aI42
aI271
aI102
asS'0-26'
p21
(lp22
I207
aI42
aI239
aI102
asS'0-25'
p23
(lp24
I175
aI42
aI207
aI102
asS'0-24'
p25
(lp26
I143
aI42
aI175
aI102
asS'0-4'
p27
(lp28
I271
aI-18
aI303
aI42
asS'0-5'
p29
(lp30
I303
aI-18
aI335
aI42
asS'0-6'
p31
(lp32
I335
aI-18
aI367
aI42
asS'0-7'
p33
(lp34
I367
aI-18
aI399
aI42
asS'0-0'
p35
(lp36
I143
aI-18
aI175
aI42
asS'0-1'
p37
(lp38
I175
aI-18
aI207
aI42
asS'0-2'
p39
(lp40
I207
aI-18
aI239
aI42
asS'0-3'
p41
(lp42
I239
aI-18
aI271
aI42
asS'0-8'
p43
(lp44
I414
aI-18
aI446
aI42
asS'0-9'
p45
(lp46
I446
aI-18
aI478
aI42
asS'0-45'
p47
(lp48
I845
aI42
aI877
aI102
asS'0-46'
p49
(lp50
I877
aI42
aI909
aI102
asS'0-44'
p51
(lp52
I813
aI42
aI845
aI102
asS'0-47'
p53
(lp54
I909
aI42
aI941
aI102
asS'0-16'
p55
(lp56
I685
aI-18
aI717
aI42
asS'0-17'
p57
(lp58
I717
aI-18
aI749
aI42
asS'0-14'
p59
(lp60
I606
aI-18
aI638
aI42
asS'0-15'
p61
(lp62
I638
aI-18
aI670
aI42
asS'0-12'
p63
(lp64
I542
aI-18
aI574
aI42
asS'0-13'
p65
(lp66
I574
aI-18
aI606
aI42
asS'0-10'
p67
(lp68
I478
aI-18
aI510
aI42
asS'0-11'
p69
(lp70
I510
aI-18
aI542
aI42
asS'0-41'
p71
(lp72
I717
aI42
aI749
aI102
asS'0-18'
p73
(lp74
I749
aI-18
aI781
aI42
asS'0-19'
p75
(lp76
I781
aI-18
aI813
aI42
asS'0-38'
p77
(lp78
I606
aI42
aI638
aI102
asS'0-39'
p79
(lp80
I638
aI42
aI670
aI102
asS'0-43'
p81
(lp82
I781
aI42
aI813
aI102
asS'0-30'
p83
(lp84
I335
aI42
aI367
aI102
asS'0-31'
p85
(lp86
I367
aI42
aI399
aI102
asS'0-32'
p87
(lp88
I414
aI42
aI446
aI102
asS'0-33'
p89
(lp90
I446
aI42
aI478
aI102
asS'0-34'
p91
(lp92
I478
aI42
aI510
aI102
asS'0-35'
p93
(lp94
I510
aI42
aI542
aI102
asS'0-36'
p95
(lp96
I542
aI42
aI574
aI102
asS'0-37'
p97
(lp98
I574
aI42
aI606
aI102
assI1
(dp99
S'1-15'
p100
(lp101
I638
aI183
aI670
aI243
asS'1-14'
p102
(lp103
I606
aI183
aI638
aI243
asS'1-17'
p104
(lp105
I717
aI183
aI749
aI243
asS'1-16'
p106
(lp107
I685
aI183
aI717
aI243
asS'1-11'
p108
(lp109
I510
aI183
aI542
aI243
asS'1-10'
p110
(lp111
I478
aI183
aI510
aI243
asS'1-13'
p112
(lp113
I574
aI183
aI606
aI243
asS'1-12'
p114
(lp115
I542
aI183
aI574
aI243
asS'1-19'
p116
(lp117
I781
aI183
aI813
aI243
asS'1-18'
p118
(lp119
I749
aI183
aI781
aI243
asS'1-39'
p120
(lp121
I638
aI243
aI670
aI303
asS'1-38'
p122
(lp123
I606
aI243
aI638
aI303
asS'1-37'
p124
(lp125
I574
aI243
aI606
aI303
asS'1-36'
p126
(lp127
I542
aI243
aI574
aI303
asS'1-35'
p128
(lp129
I510
aI243
aI542
aI303
asS'1-34'
p130
(lp131
I478
aI243
aI510
aI303
asS'1-33'
p132
(lp133
I446
aI243
aI478
aI303
asS'1-32'
p134
(lp135
I414
aI243
aI446
aI303
asS'1-31'
p136
(lp137
I367
aI243
aI399
aI303
asS'1-30'
p138
(lp139
I335
aI243
aI367
aI303
asS'1-9'
p140
(lp141
I446
aI183
aI478
aI243
asS'1-8'
p142
(lp143
I414
aI183
aI446
aI243
asS'1-1'
p144
(lp145
I175
aI183
aI207
aI243
asS'1-0'
p146
(lp147
I143
aI183
aI175
aI243
asS'1-3'
p148
(lp149
I239
aI183
aI271
aI243
asS'1-2'
p150
(lp151
I207
aI183
aI239
aI243
asS'1-5'
p152
(lp153
I303
aI183
aI335
aI243
asS'1-4'
p154
(lp155
I271
aI183
aI303
aI243
asS'1-7'
p156
(lp157
I367
aI183
aI399
aI243
asS'1-6'
p158
(lp159
I335
aI183
aI367
aI243
asS'1-46'
p160
(lp161
I877
aI243
aI909
aI303
asS'1-47'
p162
(lp163
I909
aI243
aI941
aI303
asS'1-44'
p164
(lp165
I813
aI243
aI845
aI303
asS'1-45'
p166
(lp167
I845
aI243
aI877
aI303
asS'1-42'
p168
(lp169
I749
aI243
aI781
aI303
asS'1-43'
p170
(lp171
I781
aI243
aI813
aI303
asS'1-40'
p172
(lp173
I685
aI243
aI717
aI303
asS'1-41'
p174
(lp175
I717
aI243
aI749
aI303
asS'1-28'
p176
(lp177
I271
aI243
aI303
aI303
asS'1-29'
p178
(lp179
I303
aI243
aI335
aI303
asS'1-24'
p180
(lp181
I143
aI243
aI175
aI303
asS'1-25'
p182
(lp183
I175
aI243
aI207
aI303
asS'1-26'
p184
(lp185
I207
aI243
aI239
aI303
asS'1-27'
p186
(lp187
I239
aI243
aI271
aI303
asS'1-20'
p188
(lp189
I813
aI183
aI845
aI243
asS'1-21'
p190
(lp191
I845
aI183
aI877
aI243
asS'1-22'
p192
(lp193
I877
aI183
aI909
aI243
asS'1-23'
p194
(lp195
I909
aI183
aI941
aI243
assI2
(dp196
S'2-44'
p197
(lp198
I813
aI447
aI845
aI507
asS'2-34'
p199
(lp200
I478
aI447
aI510
aI507
asS'2-46'
p201
(lp202
I877
aI447
aI909
aI507
asS'2-32'
p203
(lp204
I414
aI447
aI446
aI507
asS'2-33'
p205
(lp206
I446
aI447
aI478
aI507
asS'2-35'
p207
(lp208
I510
aI447
aI542
aI507
asS'2-30'
p209
(lp210
I335
aI447
aI367
aI507
asS'2-31'
p211
(lp212
I367
aI447
aI399
aI507
asS'2-29'
p213
(lp214
I303
aI447
aI335
aI507
asS'2-28'
p215
(lp216
I271
aI447
aI303
aI507
asS'2-25'
p217
(lp218
I175
aI447
aI207
aI507
asS'2-24'
p219
(lp220
I143
aI447
aI175
aI507
asS'2-27'
p221
(lp222
I239
aI447
aI271
aI507
asS'2-26'
p223
(lp224
I207
aI447
aI239
aI507
asS'2-21'
p225
(lp226
I845
aI387
aI877
aI447
asS'2-20'
p227
(lp228
I813
aI387
aI845
aI447
asS'2-23'
p229
(lp230
I909
aI387
aI941
aI447
asS'2-22'
p231
(lp232
I877
aI387
aI909
aI447
asS'2-2'
p233
(lp234
I207
aI387
aI239
aI447
asS'2-3'
p235
(lp236
I239
aI387
aI271
aI447
asS'2-0'
p237
(lp238
I143
aI387
aI175
aI447
asS'2-1'
p239
(lp240
I175
aI387
aI207
aI447
asS'2-6'
p241
(lp242
I335
aI387
aI367
aI447
asS'2-7'
p243
(lp244
I367
aI387
aI399
aI447
asS'2-4'
p245
(lp246
I271
aI387
aI303
aI447
asS'2-5'
p247
(lp248
I303
aI387
aI335
aI447
asS'2-8'
p249
(lp250
I414
aI387
aI446
aI447
asS'2-9'
p251
(lp252
I446
aI387
aI478
aI447
asS'2-36'
p253
(lp254
I542
aI447
aI574
aI507
asS'2-42'
p255
(lp256
I749
aI447
aI781
aI507
asS'2-41'
p257
(lp258
I717
aI447
aI749
aI507
asS'2-40'
p259
(lp260
I685
aI447
aI717
aI507
asS'2-45'
p261
(lp262
I845
aI447
aI877
aI507
asS'2-47'
p263
(lp264
I909
aI447
aI941
aI507
asS'2-37'
p265
(lp266
I574
aI447
aI606
aI507
asS'2-14'
p267
(lp268
I606
aI387
aI638
aI447
asS'2-15'
p269
(lp270
I638
aI387
aI670
aI447
asS'2-16'
p271
(lp272
I685
aI387
aI717
aI447
asS'2-17'
p273
(lp274
I717
aI387
aI749
aI447
asS'2-10'
p275
(lp276
I478
aI387
aI510
aI447
asS'2-11'
p277
(lp278
I510
aI387
aI542
aI447
asS'2-12'
p279
(lp280
I542
aI387
aI574
aI447
asS'2-13'
p281
(lp282
I574
aI387
aI606
aI447
asS'2-38'
p283
(lp284
I606
aI447
aI638
aI507
asS'2-39'
p285
(lp286
I638
aI447
aI670
aI507
asS'2-18'
p287
(lp288
I749
aI387
aI781
aI447
asS'2-19'
p289
(lp290
I781
aI387
aI813
aI447
asS'2-43'
p291
(lp292
I781
aI447
aI813
aI507
assa.